Certificate:
    Data:
        Version: 3 (0x2)
        Serial Number:
            21:46:92:6a:f0:45:40:b9:c0:54:79:9c:3c:c4:ea:0d:f0:d7:40:56
        Signature Algorithm: sha256WithRSAEncryption
        Issuer: C = TW, ST = Taiwan, L = Taipei, O = National Taiwan University, OU = IM Department, emailAddress = server@example.com, CN = localhost
        Validity
            Not Before: Jan 15 12:12:30 2021 GMT
            Not After : Jan 15 12:12:30 2022 GMT
        Subject: C = TW, ST = Taiwan, L = Taipei, O = National Taiwan University, OU = IM Department, emailAddress = server@example.com, CN = localhost
        Subject Public Key Info:
            Public Key Algorithm: rsaEncryption
                RSA Public-Key: (2048 bit)
                Modulus:
                    00:d7:7d:9f:08:19:b8:a2:75:e8:6c:25:90:ed:47:
                    05:f6:0c:a3:bd:7e:92:3b:29:24:2c:c0:a9:a0:37:
                    63:7c:25:b6:df:b7:86:32:81:5f:2f:b6:d2:49:c7:
                    4b:6e:dc:b2:30:6e:4b:a4:5e:ed:1a:40:9a:b0:40:
                    20:40:70:43:d8:08:b7:94:3c:f6:1d:20:7b:d5:fd:
                    78:80:02:d6:1e:75:0d:8c:79:c9:f3:b1:be:af:a5:
                    cf:f2:e6:88:5e:f6:66:cc:82:39:66:de:41:90:e2:
                    ab:fb:08:af:6d:96:cf:fa:21:03:96:da:49:be:31:
                    73:4d:8d:f9:07:63:7e:f9:05:f3:74:7c:f7:c8:f1:
                    3e:aa:fb:bd:c7:7d:65:91:98:ad:55:7b:8e:ab:4c:
                    b9:96:9a:0e:be:8f:9f:54:4e:6d:6e:03:6d:45:77:
                    c0:a5:2b:53:4d:08:ef:23:04:c2:2d:6b:97:19:a2:
                    11:1b:ac:87:74:6c:31:6f:7c:19:1d:81:dc:4f:cb:
                    5b:12:ad:13:2c:e2:1e:8f:25:15:ca:7c:cf:27:4c:
                    14:30:d2:24:89:f3:bd:af:df:1f:51:24:c3:ae:ae:
                    c8:95:ea:10:87:83:f8:6c:cf:fb:8d:dd:e5:20:26:
                    ae:08:b7:33:f3:10:24:99:ba:ea:e5:3b:a7:6c:a8:
                    10:7d
                Exponent: 65537 (0x10001)
    Signature Algorithm: sha256WithRSAEncryption
         3e:3c:eb:50:71:d6:b3:9c:3e:be:9f:00:f5:ba:6a:29:85:f4:
         7f:4b:c5:67:83:2a:f6:af:ea:c8:56:73:36:70:3b:de:9e:91:
         88:cd:03:31:ba:83:0f:49:5d:8e:8d:b2:14:50:6c:65:98:2e:
         82:57:5c:0d:f9:18:4a:a5:13:dc:3d:fe:d1:c7:06:0d:61:a9:
         6a:69:56:f9:02:32:0f:a1:48:dd:50:d2:b8:88:f0:4c:b6:ad:
         fb:50:e5:d1:40:62:19:72:e7:d1:be:20:d5:6e:52:72:d9:96:
         6c:f2:ac:94:0a:57:0f:f7:aa:d4:2c:e7:ad:7b:b9:3d:b0:95:
         5b:b3:75:e0:f0:b2:14:a4:ab:e2:51:0f:7f:c0:40:9b:28:23:
         4e:69:40:d7:a2:79:76:85:f5:40:0d:80:10:17:6c:ab:c1:c8:
         dc:9c:18:58:ce:ee:ef:31:35:aa:d3:ea:ea:37:d3:94:50:ac:
         e6:ff:cc:20:9c:72:0e:63:fd:bd:93:87:6c:d2:cb:0f:9c:20:
         0c:e9:12:dc:39:ab:21:e7:cd:13:ff:42:2f:01:fd:c4:69:b2:
         b6:c6:df:da:33:f2:2f:5d:05:70:5d:27:54:47:48:9b:c6:e3:
         ee:ae:c1:3d:97:11:0b:49:4e:42:d5:64:de:ba:fe:4e:01:a4:
         25:e6:f2:c9
-----BEGIN CERTIFICATE-----
MIID1DCCArygAwIBAgIUIUaSavBFQLnAVHmcPMTqDfDXQFYwDQYJKoZIhvcNAQEL
BQAwgaMxCzAJBgNVBAYTAlRXMQ8wDQYDVQQIDAZUYWl3YW4xDzANBgNVBAcMBlRh
aXBlaTEjMCEGA1UECgwaTmF0aW9uYWwgVGFpd2FuIFVuaXZlcnNpdHkxFjAUBgNV
BAsMDUlNIERlcGFydG1lbnQxITAfBgkqhkiG9w0BCQEWEnNlcnZlckBleGFtcGxl
LmNvbTESMBAGA1UEAwwJbG9jYWxob3N0MB4XDTIxMDExNTEyMTIzMFoXDTIyMDEx
NTEyMTIzMFowgaMxCzAJBgNVBAYTAlRXMQ8wDQYDVQQIDAZUYWl3YW4xDzANBgNV
BAcMBlRhaXBlaTEjMCEGA1UECgwaTmF0aW9uYWwgVGFpd2FuIFVuaXZlcnNpdHkx
FjAUBgNVBAsMDUlNIERlcGFydG1lbnQxITAfBgkqhkiG9w0BCQEWEnNlcnZlckBl
eGFtcGxlLmNvbTESMBAGA1UEAwwJbG9jYWxob3N0MIIBIjANBgkqhkiG9w0BAQEF
AAOCAQ8AMIIBCgKCAQEA132fCBm4onXobCWQ7UcF9gyjvX6SOykkLMCpoDdjfCW2
37eGMoFfL7bSScdLbtyyMG5LpF7tGkCasEAgQHBD2Ai3lDz2HSB71f14gALWHnUN
jHnJ87G+r6XP8uaIXvZmzII5Zt5BkOKr+wivbZbP+iEDltpJvjFzTY35B2N++QXz
dHz3yPE+qvu9x31lkZitVXuOq0y5lpoOvo+fVE5tbgNtRXfApStTTQjvIwTCLWuX
GaIRG6yHdGwxb3wZHYHcT8tbEq0TLOIejyUVynzPJ0wUMNIkifO9r98fUSTDrq7I
leoQh4P4bM/7jd3lICauCLcz8xAkmbrq5TunbKgQfQIDAQABMA0GCSqGSIb3DQEB
CwUAA4IBAQA+POtQcdaznD6+nwD1umophfR/S8Vngyr2r+rIVnM2cDvenpGIzQMx
uoMPSV2OjbIUUGxlmC6CV1wN+RhKpRPcPf7RxwYNYalqaVb5AjIPoUjdUNK4iPBM
tq37UOXRQGIZcufRviDVblJy2ZZs8qyUClcP96rULOete7k9sJVbs3Xg8LIUpKvi
UQ9/wECbKCNOaUDXonl2hfVADYAQF2yrwcjcnBhYzu7vMTWq0+rqN9OUUKzm/8wg
nHIOY/29k4ds0ssPnCAM6RLcOash580T/0IvAf3EabK2xt/aM/IvXQVwXSdUR0ib
xuPursE9lxELSU5C1WTeuv5OAaQl5vLJ
-----END CERTIFICATE-----
Certificate:
    Data:
        Version: 3 (0x2)
        Serial Number:
            50:dd:ca:10:8d:85:98:e7:8c:06:ad:1b:e2:5f:cf:c6:ca:10:ac:f1
        Signature Algorithm: sha256WithRSAEncryption
        Issuer: C = TW, ST = Taiwan, L = Taipei, O = National Taiwan University, OU = IM Department, emailAddress = client@example.com, CN = localhost
        Validity
            Not Before: Jan 15 12:12:38 2021 GMT
            Not After : Jan 15 12:12:38 2022 GMT
        Subject: C = TW, ST = Taiwan, L = Taipei, O = National Taiwan University, OU = IM Department, emailAddress = client@example.com, CN = localhost
        Subject Public Key Info:
            Public Key Algorithm: rsaEncryption
                RSA Public-Key: (2048 bit)
                Modulus:
                    00:c6:69:9a:8e:fd:79:90:2b:57:de:bf:21:fb:60:
                    55:91:a9:be:1c:7b:03:2f:1b:4b:c7:39:a1:32:84:
                    1a:c8:bf:d6:df:e3:0a:e7:3f:0e:89:ec:82:69:9a:
                    88:67:12:ff:b8:d4:4a:a8:7d:58:1d:33:70:19:70:
                    11:97:87:6e:a0:22:17:1e:57:3c:07:66:f6:4d:cd:
                    4a:be:45:2d:8c:37:be:76:bf:f5:9d:99:9f:6c:71:
                    00:52:a8:f2:42:11:fe:c7:d4:ba:a8:34:31:aa:ad:
                    81:a8:10:f1:56:d8:22:b0:4a:81:04:7f:40:48:e3:
                    3b:7b:e8:4f:77:e4:d1:3b:74:aa:53:83:5a:00:ac:
                    93:08:c9:b8:5b:e9:bb:31:c1:87:83:f5:b2:42:4b:
                    b9:cb:4e:97:37:98:35:cd:27:10:26:24:6c:d6:5a:
                    75:ff:ae:7b:2c:79:a4:ea:07:c9:04:2a:43:6c:ff:
                    05:74:78:bd:46:0d:2b:08:c7:25:29:61:ec:d3:3f:
                    34:2c:c8:1a:f3:e5:df:14:9c:13:22:2f:cf:10:1c:
                    dd:cc:ae:ce:90:4b:54:dd:a5:5c:6b:c5:1c:03:d0:
                    36:a1:3a:d1:c7:48:5f:44:63:f4:00:42:88:8a:46:
                    37:d6:e3:f9:53:39:f1:58:6a:77:d7:19:17:24:3d:
                    7b:c1
                Exponent: 65537 (0x10001)
    Signature Algorithm: sha256WithRSAEncryption
         0e:fe:9f:0c:cd:27:a2:22:e2:70:6b:29:00:e5:e8:52:9c:6b:
         ac:73:fb:2d:ca:01:38:b7:fb:59:f5:19:74:22:c2:6a:02:23:
         78:92:b4:ee:6a:73:7a:89:14:d7:a1:c4:95:a5:07:f6:27:9c:
         60:54:40:cb:9d:06:10:dd:23:c2:46:fb:b3:e5:d8:d6:8c:ff:
         57:3d:be:35:9b:e1:67:40:7d:58:a8:1a:40:51:44:f7:01:65:
         4e:77:c0:62:4f:81:43:4d:3a:37:81:22:64:b9:19:3b:f1:61:
         fc:79:36:1a:b9:2f:ac:82:b8:54:9d:e4:b5:84:8e:8a:22:0e:
         a9:13:80:cf:ee:99:1f:30:79:cf:42:78:4e:8f:3a:1f:c4:5b:
         9e:3d:0e:c4:30:45:fd:94:e8:6a:89:80:5e:ff:9a:75:3f:b2:
         23:12:64:12:fe:41:41:3f:71:4d:39:95:f0:0c:a5:a7:87:b5:
         bd:7e:49:45:76:64:3a:d5:dc:1c:87:30:b5:d1:17:fd:34:67:
         21:8f:7b:65:07:6c:e2:40:43:19:00:0c:7a:ca:82:9a:da:af:
         fe:8c:c0:38:7a:32:6f:3e:dd:ee:18:e0:d8:32:6d:7c:e7:52:
         b1:29:01:9e:63:a1:9f:8e:42:d8:bd:74:61:3c:17:ec:11:92:
         af:37:b1:a8
-----BEGIN CERTIFICATE-----
MIID1DCCArygAwIBAgIUUN3KEI2FmOeMBq0b4l/PxsoQrPEwDQYJKoZIhvcNAQEL
BQAwgaMxCzAJBgNVBAYTAlRXMQ8wDQYDVQQIDAZUYWl3YW4xDzANBgNVBAcMBlRh
aXBlaTEjMCEGA1UECgwaTmF0aW9uYWwgVGFpd2FuIFVuaXZlcnNpdHkxFjAUBgNV
BAsMDUlNIERlcGFydG1lbnQxITAfBgkqhkiG9w0BCQEWEmNsaWVudEBleGFtcGxl
LmNvbTESMBAGA1UEAwwJbG9jYWxob3N0MB4XDTIxMDExNTEyMTIzOFoXDTIyMDEx
NTEyMTIzOFowgaMxCzAJBgNVBAYTAlRXMQ8wDQYDVQQIDAZUYWl3YW4xDzANBgNV
BAcMBlRhaXBlaTEjMCEGA1UECgwaTmF0aW9uYWwgVGFpd2FuIFVuaXZlcnNpdHkx
FjAUBgNVBAsMDUlNIERlcGFydG1lbnQxITAfBgkqhkiG9w0BCQEWEmNsaWVudEBl
eGFtcGxlLmNvbTESMBAGA1UEAwwJbG9jYWxob3N0MIIBIjANBgkqhkiG9w0BAQEF
AAOCAQ8AMIIBCgKCAQEAxmmajv15kCtX3r8h+2BVkam+HHsDLxtLxzmhMoQayL/W
3+MK5z8OieyCaZqIZxL/uNRKqH1YHTNwGXARl4duoCIXHlc8B2b2Tc1KvkUtjDe+
dr/1nZmfbHEAUqjyQhH+x9S6qDQxqq2BqBDxVtgisEqBBH9ASOM7e+hPd+TRO3Sq
U4NaAKyTCMm4W+m7McGHg/WyQku5y06XN5g1zScQJiRs1lp1/657LHmk6gfJBCpD
bP8FdHi9Rg0rCMclKWHs0z80LMga8+XfFJwTIi/PEBzdzK7OkEtU3aVca8UcA9A2
oTrRx0hfRGP0AEKIikY31uP5UznxWGp31xkXJD17wQIDAQABMA0GCSqGSIb3DQEB
CwUAA4IBAQAO/p8MzSeiIuJwaykA5ehSnGusc/stygE4t/tZ9Rl0IsJqAiN4krTu
anN6iRTXocSVpQf2J5xgVEDLnQYQ3SPCRvuz5djWjP9XPb41m+FnQH1YqBpAUUT3
AWVOd8BiT4FDTTo3gSJkuRk78WH8eTYauS+sgrhUneS1hI6KIg6pE4DP7pkfMHnP
QnhOjzofxFuePQ7EMEX9lOhqiYBe/5p1P7IjEmQS/kFBP3FNOZXwDKWnh7W9fklF
dmQ61dwchzC10Rf9NGchj3tlB2ziQEMZAAx6yoKa2q/+jMA4ejJvPt3uGODYMm18
51KxKQGeY6GfjkLYvXRhPBfsEZKvN7Go
-----END CERTIFICATE-----
Certificate:
    Data:
        Version: 3 (0x2)
        Serial Number:
            50:dd:ca:10:8d:85:98:e7:8c:06:ad:1b:e2:5f:cf:c6:ca:10:ac:f1
        Signature Algorithm: sha256WithRSAEncryption
        Issuer: C = TW, ST = Taiwan, L = Taipei, O = National Taiwan University, OU = IM Department, emailAddress = client@example.com, CN = localhost
        Validity
            Not Before: Jan 15 12:12:38 2021 GMT
            Not After : Jan 15 12:12:38 2022 GMT
        Subject: C = TW, ST = Taiwan, L = Taipei, O = National Taiwan University, OU = IM Department, emailAddress = client@example.com, CN = localhost
        Subject Public Key Info:
            Public Key Algorithm: rsaEncryption
                RSA Public-Key: (2048 bit)
                Modulus:
                    00:c6:69:9a:8e:fd:79:90:2b:57:de:bf:21:fb:60:
                    55:91:a9:be:1c:7b:03:2f:1b:4b:c7:39:a1:32:84:
                    1a:c8:bf:d6:df:e3:0a:e7:3f:0e:89:ec:82:69:9a:
                    88:67:12:ff:b8:d4:4a:a8:7d:58:1d:33:70:19:70:
                    11:97:87:6e:a0:22:17:1e:57:3c:07:66:f6:4d:cd:
                    4a:be:45:2d:8c:37:be:76:bf:f5:9d:99:9f:6c:71:
                    00:52:a8:f2:42:11:fe:c7:d4:ba:a8:34:31:aa:ad:
                    81:a8:10:f1:56:d8:22:b0:4a:81:04:7f:40:48:e3:
                    3b:7b:e8:4f:77:e4:d1:3b:74:aa:53:83:5a:00:ac:
                    93:08:c9:b8:5b:e9:bb:31:c1:87:83:f5:b2:42:4b:
                    b9:cb:4e:97:37:98:35:cd:27:10:26:24:6c:d6:5a:
                    75:ff:ae:7b:2c:79:a4:ea:07:c9:04:2a:43:6c:ff:
                    05:74:78:bd:46:0d:2b:08:c7:25:29:61:ec:d3:3f:
                    34:2c:c8:1a:f3:e5:df:14:9c:13:22:2f:cf:10:1c:
                    dd:cc:ae:ce:90:4b:54:dd:a5:5c:6b:c5:1c:03:d0:
                    36:a1:3a:d1:c7:48:5f:44:63:f4:00:42:88:8a:46:
                    37:d6:e3:f9:53:39:f1:58:6a:77:d7:19:17:24:3d:
                    7b:c1
                Exponent: 65537 (0x10001)
    Signature Algorithm: sha256WithRSAEncryption
         0e:fe:9f:0c:cd:27:a2:22:e2:70:6b:29:00:e5:e8:52:9c:6b:
         ac:73:fb:2d:ca:01:38:b7:fb:59:f5:19:74:22:c2:6a:02:23:
         78:92:b4:ee:6a:73:7a:89:14:d7:a1:c4:95:a5:07:f6:27:9c:
         60:54:40:cb:9d:06:10:dd:23:c2:46:fb:b3:e5:d8:d6:8c:ff:
         57:3d:be:35:9b:e1:67:40:7d:58:a8:1a:40:51:44:f7:01:65:
         4e:77:c0:62:4f:81:43:4d:3a:37:81:22:64:b9:19:3b:f1:61:
         fc:79:36:1a:b9:2f:ac:82:b8:54:9d:e4:b5:84:8e:8a:22:0e:
         a9:13:80:cf:ee:99:1f:30:79:cf:42:78:4e:8f:3a:1f:c4:5b:
         9e:3d:0e:c4:30:45:fd:94:e8:6a:89:80:5e:ff:9a:75:3f:b2:
         23:12:64:12:fe:41:41:3f:71:4d:39:95:f0:0c:a5:a7:87:b5:
         bd:7e:49:45:76:64:3a:d5:dc:1c:87:30:b5:d1:17:fd:34:67:
         21:8f:7b:65:07:6c:e2:40:43:19:00:0c:7a:ca:82:9a:da:af:
         fe:8c:c0:38:7a:32:6f:3e:dd:ee:18:e0:d8:32:6d:7c:e7:52:
         b1:29:01:9e:63:a1:9f:8e:42:d8:bd:74:61:3c:17:ec:11:92:
         af:37:b1:a8
-----BEGIN CERTIFICATE-----
MIID1DCCArygAwIBAgIUUN3KEI2FmOeMBq0b4l/PxsoQrPEwDQYJKoZIhvcNAQEL
BQAwgaMxCzAJBgNVBAYTAlRXMQ8wDQYDVQQIDAZUYWl3YW4xDzANBgNVBAcMBlRh
aXBlaTEjMCEGA1UECgwaTmF0aW9uYWwgVGFpd2FuIFVuaXZlcnNpdHkxFjAUBgNV
BAsMDUlNIERlcGFydG1lbnQxITAfBgkqhkiG9w0BCQEWEmNsaWVudEBleGFtcGxl
LmNvbTESMBAGA1UEAwwJbG9jYWxob3N0MB4XDTIxMDExNTEyMTIzOFoXDTIyMDEx
NTEyMTIzOFowgaMxCzAJBgNVBAYTAlRXMQ8wDQYDVQQIDAZUYWl3YW4xDzANBgNV
BAcMBlRhaXBlaTEjMCEGA1UECgwaTmF0aW9uYWwgVGFpd2FuIFVuaXZlcnNpdHkx
FjAUBgNVBAsMDUlNIERlcGFydG1lbnQxITAfBgkqhkiG9w0BCQEWEmNsaWVudEBl
eGFtcGxlLmNvbTESMBAGA1UEAwwJbG9jYWxob3N0MIIBIjANBgkqhkiG9w0BAQEF
AAOCAQ8AMIIBCgKCAQEAxmmajv15kCtX3r8h+2BVkam+HHsDLxtLxzmhMoQayL/W
3+MK5z8OieyCaZqIZxL/uNRKqH1YHTNwGXARl4duoCIXHlc8B2b2Tc1KvkUtjDe+
dr/1nZmfbHEAUqjyQhH+x9S6qDQxqq2BqBDxVtgisEqBBH9ASOM7e+hPd+TRO3Sq
U4NaAKyTCMm4W+m7McGHg/WyQku5y06XN5g1zScQJiRs1lp1/657LHmk6gfJBCpD
bP8FdHi9Rg0rCMclKWHs0z80LMga8+XfFJwTIi/PEBzdzK7OkEtU3aVca8UcA9A2
oTrRx0hfRGP0AEKIikY31uP5UznxWGp31xkXJD17wQIDAQABMA0GCSqGSIb3DQEB
CwUAA4IBAQAO/p8MzSeiIuJwaykA5ehSnGusc/stygE4t/tZ9Rl0IsJqAiN4krTu
anN6iRTXocSVpQf2J5xgVEDLnQYQ3SPCRvuz5djWjP9XPb41m+FnQH1YqBpAUUT3
AWVOd8BiT4FDTTo3gSJkuRk78WH8eTYauS+sgrhUneS1hI6KIg6pE4DP7pkfMHnP
QnhOjzofxFuePQ7EMEX9lOhqiYBe/5p1P7IjEmQS/kFBP3FNOZXwDKWnh7W9fklF
dmQ61dwchzC10Rf9NGchj3tlB2ziQEMZAAx6yoKa2q/+jMA4ejJvPt3uGODYMm18
51KxKQGeY6GfjkLYvXRhPBfsEZKvN7Go
-----END CERTIFICATE-----
